; Function Attrs: mustprogress uwtable
define internal void @"_ZN4absl12lts_2024072219functional_internal12InvokeObjectIZN9grpc_core12_GLOBAL__N_19PickFirst12UpdateLockedENS3_19LoadBalancingPolicy10UpdateArgsEE3$_0vJRKNS3_17EndpointAddressesEEEET0_NS1_7VoidPtrEDpNS1_8ForwardTIT1_E4typeE"(ptr readonly captures(none) %0, ptr noundef nonnull align 8 dereferenceable(32) %1) #4 {
  %.val = load ptr, ptr %0, align 8, !tbaa !540
  %3 = getelementptr inbounds nuw i8, ptr %.val, i64 8
  %4 = load ptr, ptr %3, align 8, !tbaa !190
  %5 = getelementptr inbounds nuw i8, ptr %.val, i64 16
  %6 = load ptr, ptr %5, align 8, !tbaa !191
  %.not.i.i.i.i.i = icmp eq ptr %4, %6
  br i1 %.not.i.i.i.i.i, label %10, label %7

7:                                                ; preds = %2
  tail call void @_ZN9grpc_core17EndpointAddressesC1ERKS0_(ptr noundef nonnull align 8 dereferenceable(32) %4, ptr noundef nonnull align 8 dereferenceable(32) %1)
  %8 = load ptr, ptr %3, align 8, !tbaa !190
  %9 = getelementptr inbounds nuw i8, ptr %8, i64 32
  store ptr %9, ptr %3, align 8, !tbaa !190
  br label %"_ZSt6invokeIRKZN9grpc_core12_GLOBAL__N_19PickFirst12UpdateLockedENS0_19LoadBalancingPolicy10UpdateArgsEE3$_0JRKNS0_17EndpointAddressesEEENSt13invoke_resultIT_JDpT0_EE4typeEOSC_DpOSD_.exit"

10:                                               ; preds = %2
  tail call void @_ZNSt6vectorIN9grpc_core17EndpointAddressesESaIS1_EE17_M_realloc_insertIJRKS1_EEEvN9__gnu_cxx17__normal_iteratorIPS1_S3_EEDpOT_(ptr noundef nonnull align 8 dereferenceable(24) %.val, ptr %4, ptr noundef nonnull align 8 dereferenceable(32) %1)
  br label %"_ZSt6invokeIRKZN9grpc_core12_GLOBAL__N_19PickFirst12UpdateLockedENS0_19LoadBalancingPolicy10UpdateArgsEE3$_0JRKNS0_17EndpointAddressesEEENSt13invoke_resultIT_JDpT0_EE4typeEOSC_DpOSD_.exit"

"_ZSt6invokeIRKZN9grpc_core12_GLOBAL__N_19PickFirst12UpdateLockedENS0_19LoadBalancingPolicy10UpdateArgsEE3$_0JRKNS0_17EndpointAddressesEEENSt13invoke_resultIT_JDpT0_EE4typeEOSC_DpOSD_.exit": ; preds = %7, %10
  ret void
}